Certificate:
    Data:
        Version: 3 (0x2)
        Serial Number: 1 (0x1)
    Signature Algorithm: sha1WithRSAEncryption
        Issuer: O=Grid, OU=GlobusTest, OU=simpleCA-david.ccgc.mastercpd.upv.es, CN=Globus Simple CA
        Validity
            Not Before: Dec 26 09:51:06 2023 GMT
            Not After : Dec 25 09:51:06 2024 GMT
        Subject: O=Grid, OU=GlobusTest, OU=simpleCA-david.ccgc.mastercpd.upv.es, OU=local, CN=host/david.ccgc.mastercpd.upv.es
        Subject Public Key Info:
            Public Key Algorithm: rsaEncryption
                Public-Key: (1024 bit)
                Modulus:
                    00:ba:c2:8c:91:cf:0f:b6:ee:e1:03:f3:31:d6:84:
                    cb:d4:2a:2a:b5:f3:3f:f3:1d:91:5a:f6:7d:76:8f:
                    da:93:36:b1:0d:cd:27:d1:a1:88:83:37:97:b3:d7:
                    07:f6:8a:1f:30:f9:75:96:83:91:37:96:26:62:04:
                    91:0a:a6:1e:08:94:c8:9b:e4:c3:fe:c0:51:77:c1:
                    de:10:5f:c9:c3:41:48:e3:3e:a4:50:68:be:63:dd:
                    5c:91:0f:15:e3:c7:59:0e:46:0c:a6:3c:e6:66:78:
                    0f:f5:3c:ef:85:5a:07:51:02:78:a9:43:88:9f:a5:
                    ba:87:02:c3:36:27:32:43:79
                Exponent: 65537 (0x10001)
        X509v3 extensions:
            Netscape Cert Type: 
                SSL Client, SSL Server, S/MIME, Object Signing
    Signature Algorithm: sha1WithRSAEncryption
         00:63:c4:20:9f:fd:3a:81:b0:62:79:33:d5:a6:89:55:0b:be:
         ca:e8:16:29:38:49:4b:8a:f3:58:ff:b3:1e:29:cf:b9:a4:d1:
         d3:de:80:c4:e0:a3:89:87:ba:51:63:9b:a1:56:25:a3:65:0e:
         41:c7:26:98:a5:87:76:4b:aa:ff:6c:07:8a:eb:da:8f:45:07:
         c8:a4:a2:c5:56:d1:35:1f:ea:db:47:01:10:20:7d:e8:04:c2:
         79:c6:5c:fb:54:e5:98:d8:92:19:58:9f:90:10:52:12:f4:38:
         93:91:14:9c:19:ba:a7:9e:94:07:fc:56:94:dd:9d:50:c7:75:
         4a:87
-----BEGIN CERTIFICATE-----
MIICiDCCAfGgAwIBAgIBATANBgkqhkiG9w0BAQUFADBuMQ0wCwYDVQQKEwRHcmlk
MRMwEQYDVQQLEwpHbG9idXNUZXN0MS0wKwYDVQQLEyRzaW1wbGVDQS1kYXZpZC5j
Y2djLm1hc3RlcmNwZC51cHYuZXMxGTAXBgNVBAMTEEdsb2J1cyBTaW1wbGUgQ0Ew
HhcNMjMxMjI2MDk1MTA2WhcNMjQxMjI1MDk1MTA2WjCBjjENMAsGA1UEChMER3Jp
ZDETMBEGA1UECxMKR2xvYnVzVGVzdDEtMCsGA1UECxMkc2ltcGxlQ0EtZGF2aWQu
Y2NnYy5tYXN0ZXJjcGQudXB2LmVzMQ4wDAYDVQQLEwVsb2NhbDEpMCcGA1UEAxMg
aG9zdC9kYXZpZC5jY2djLm1hc3RlcmNwZC51cHYuZXMwgZ8wDQYJKoZIhvcNAQEB
BQADgY0AMIGJAoGBALrCjJHPD7bu4QPzMdaEy9QqKrXzP/MdkVr2fXaP2pM2sQ3N
J9GhiIM3l7PXB/aKHzD5dZaDkTeWJmIEkQqmHgiUyJvkw/7AUXfB3hBfycNBSOM+
pFBovmPdXJEPFePHWQ5GDKY85mZ4D/U874VaB1ECeKlDiJ+luocCwzYnMkN5AgMB
AAGjFTATMBEGCWCGSAGG+EIBAQQEAwIE8DANBgkqhkiG9w0BAQUFAAOBgQAAY8Qg
n/06gbBieTPVpolVC77K6BYpOElLivNY/7MeKc+5pNHT3oDE4KOJh7pRY5uhViWj
ZQ5BxyaYpYd2S6r/bAeK69qPRQfIpKLFVtE1H+rbRwEQIH3oBMJ5xlz7VOWY2JIZ
WJ+QEFIS9DiTkRScGbqnnpQH/FaU3Z1Qx3VKhw==
-----END CERTIFICATE-----
