Certificate:
    Data:
        Version: 3 (0x2)
        Serial Number: 12 (0xc)
    Signature Algorithm: sha1WithRSAEncryption
        Issuer: O=Grid, OU=GlobusTest, OU=simpleCA-david.ccgc.mastercpd.upv.es, CN=Globus Simple CA
        Validity
            Not Before: Jan  9 14:00:44 2024 GMT
            Not After : Jan  8 14:00:44 2025 GMT
        Subject: O=Grid, OU=GlobusTest, OU=simpleCA-david.ccgc.mastercpd.upv.es, CN=host/david.ccgc.mastercpd.upv.es
        Subject Public Key Info:
            Public Key Algorithm: rsaEncryption
                Public-Key: (1024 bit)
                Modulus:
                    00:db:23:23:cc:d1:fd:f1:8f:ae:fb:5d:4d:ca:20:
                    2d:aa:e9:5b:e6:4f:54:c9:4f:f2:9d:bc:83:f2:c1:
                    24:37:b5:da:e2:9e:36:b5:12:d4:cf:90:6f:0b:ef:
                    1c:9c:bd:5c:36:d3:89:65:80:d6:c6:e1:f9:f5:44:
                    4c:76:0f:59:fc:90:fe:ac:ff:26:e8:7b:63:2d:ad:
                    c2:d4:84:a2:b7:d7:88:e4:a1:11:ba:12:97:3f:b1:
                    18:06:39:48:ef:16:b1:b5:73:ee:5b:2f:3e:94:3a:
                    37:86:49:2c:e5:e0:65:b4:8b:79:ae:30:e4:c0:91:
                    5a:e2:32:79:11:d4:a1:d1:c5
                Exponent: 65537 (0x10001)
        X509v3 extensions:
            Netscape Cert Type: 
                SSL Client, SSL Server, S/MIME, Object Signing
    Signature Algorithm: sha1WithRSAEncryption
         6c:20:17:17:3b:0e:e3:a2:5f:c6:7b:78:db:73:51:bc:48:fa:
         64:4f:07:16:5d:5f:7b:15:21:7e:9d:d5:8e:30:ea:f0:66:89:
         8f:fb:73:6e:63:48:9e:f2:46:d8:98:db:ac:fb:51:57:5b:ac:
         9b:20:43:46:fe:9d:b6:77:e7:55:10:04:1e:e9:7b:47:86:ae:
         75:5c:9b:2e:de:e6:6a:5f:e2:12:18:fa:44:4f:c7:dd:62:9d:
         24:fc:ef:fb:59:69:07:81:f4:7d:61:b3:b9:79:a1:5a:1c:c6:
         14:16:a1:11:8b:52:7d:94:c3:c9:ca:ff:2c:18:9a:3a:36:69:
         7c:3a
-----BEGIN CERTIFICATE-----
MIICdzCCAeCgAwIBAgIBDDANBgkqhkiG9w0BAQUFADBuMQ0wCwYDVQQKEwRHcmlk
MRMwEQYDVQQLEwpHbG9idXNUZXN0MS0wKwYDVQQLEyRzaW1wbGVDQS1kYXZpZC5j
Y2djLm1hc3RlcmNwZC51cHYuZXMxGTAXBgNVBAMTEEdsb2J1cyBTaW1wbGUgQ0Ew
HhcNMjQwMTA5MTQwMDQ0WhcNMjUwMTA4MTQwMDQ0WjB+MQ0wCwYDVQQKEwRHcmlk
MRMwEQYDVQQLEwpHbG9idXNUZXN0MS0wKwYDVQQLEyRzaW1wbGVDQS1kYXZpZC5j
Y2djLm1hc3RlcmNwZC51cHYuZXMxKTAnBgNVBAMTIGhvc3QvZGF2aWQuY2NnYy5t
YXN0ZXJjcGQudXB2LmVzMIGfMA0GCSqGSIb3DQEBAQUAA4GNADCBiQKBgQDbIyPM
0f3xj677XU3KIC2q6VvmT1TJT/KdvIPywSQ3tdrinja1EtTPkG8L7xycvVw204ll
gNbG4fn1REx2D1n8kP6s/yboe2MtrcLUhKK314jkoRG6Epc/sRgGOUjvFrG1c+5b
Lz6UOjeGSSzl4GW0i3muMOTAkVriMnkR1KHRxQIDAQABoxUwEzARBglghkgBhvhC
AQEEBAMCBPAwDQYJKoZIhvcNAQEFBQADgYEAbCAXFzsO46Jfxnt423NRvEj6ZE8H
Fl1fexUhfp3VjjDq8GaJj/tzbmNInvJG2JjbrPtRV1usmyBDRv6dtnfnVRAEHul7
R4audVybLt7mal/iEhj6RE/H3WKdJPzv+1lpB4H0fWGzuXmhWhzGFBahEYtSfZTD
ycr/LBiaOjZpfDo=
-----END CERTIFICATE-----
