Certificate:
    Data:
        Version: 3 (0x2)
        Serial Number: 11 (0xb)
    Signature Algorithm: sha1WithRSAEncryption
        Issuer: O=Grid, OU=GlobusTest, OU=simpleCA-david.ccgc.mastercpd.upv.es, CN=Globus Simple CA
        Validity
            Not Before: Jan  9 13:59:48 2024 GMT
            Not After : Jan  8 13:59:48 2025 GMT
        Subject: O=Grid, OU=GlobusTest, OU=simpleCA-david.ccgc.mastercpd.upv.es, OU=local, CN=David Valdaliso Lopez
        Subject Public Key Info:
            Public Key Algorithm: rsaEncryption
                Public-Key: (1024 bit)
                Modulus:
                    00:aa:6c:25:36:05:bd:88:1e:27:98:67:e3:5a:34:
                    85:2a:0d:95:03:57:87:e7:44:ad:5a:c7:31:09:e7:
                    6d:ae:a7:38:7e:2c:61:b2:9b:de:c0:e5:43:af:6b:
                    ae:be:1d:f7:be:9b:bb:ae:2f:1c:4b:e8:18:87:7b:
                    1f:15:4a:6e:1d:71:d5:8a:55:bf:a8:cb:53:b8:9f:
                    c1:c9:83:08:e2:b0:ff:c0:8e:43:ac:ba:18:7b:41:
                    e7:64:08:df:8e:6d:f6:20:71:c5:ab:35:eb:cb:50:
                    46:43:be:63:96:91:ba:fa:a2:4c:2d:9d:35:19:94:
                    95:60:ed:c5:7e:59:de:04:85
                Exponent: 65537 (0x10001)
        X509v3 extensions:
            Netscape Cert Type: 
                SSL Client, SSL Server, S/MIME, Object Signing
    Signature Algorithm: sha1WithRSAEncryption
         58:65:c7:a2:78:7a:bb:a5:aa:a3:3e:28:9e:32:fa:62:1a:92:
         05:08:ff:bd:37:da:df:cc:3d:8f:39:e6:fc:d0:fb:b2:93:1b:
         73:4a:54:78:a3:32:cc:9d:5e:cc:1d:94:a4:ca:4c:e3:1d:51:
         46:57:6c:65:13:c9:02:41:1a:8d:31:b9:8a:41:53:a0:78:53:
         d3:b1:39:cb:ce:90:35:3f:21:60:3b:16:69:15:1e:7a:c6:68:
         d3:78:6f:35:3c:d2:38:99:35:16:e8:78:0a:a1:8a:94:64:d4:
         09:ac:13:8c:e4:9a:27:1c:b8:48:50:ff:97:5a:eb:01:7b:2d:
         09:e3
-----BEGIN CERTIFICATE-----
MIICfTCCAeagAwIBAgIBCzANBgkqhkiG9w0BAQUFADBuMQ0wCwYDVQQKEwRHcmlk
MRMwEQYDVQQLEwpHbG9idXNUZXN0MS0wKwYDVQQLEyRzaW1wbGVDQS1kYXZpZC5j
Y2djLm1hc3RlcmNwZC51cHYuZXMxGTAXBgNVBAMTEEdsb2J1cyBTaW1wbGUgQ0Ew
HhcNMjQwMTA5MTM1OTQ4WhcNMjUwMTA4MTM1OTQ4WjCBgzENMAsGA1UEChMER3Jp
ZDETMBEGA1UECxMKR2xvYnVzVGVzdDEtMCsGA1UECxMkc2ltcGxlQ0EtZGF2aWQu
Y2NnYy5tYXN0ZXJjcGQudXB2LmVzMQ4wDAYDVQQLEwVsb2NhbDEeMBwGA1UEAxMV
RGF2aWQgVmFsZGFsaXNvIExvcGV6MIGfMA0GCSqGSIb3DQEBAQUAA4GNADCBiQKB
gQCqbCU2Bb2IHieYZ+NaNIUqDZUDV4fnRK1axzEJ522upzh+LGGym97A5UOva66+
Hfe+m7uuLxxL6BiHex8VSm4dcdWKVb+oy1O4n8HJgwjisP/AjkOsuhh7QedkCN+O
bfYgccWrNevLUEZDvmOWkbr6okwtnTUZlJVg7cV+Wd4EhQIDAQABoxUwEzARBglg
hkgBhvhCAQEEBAMCBPAwDQYJKoZIhvcNAQEFBQADgYEAWGXHonh6u6Wqoz4onjL6
YhqSBQj/vTfa38w9jznm/ND7spMbc0pUeKMyzJ1ezB2UpMpM4x1RRldsZRPJAkEa
jTG5ikFToHhT07E5y86QNT8hYDsWaRUeesZo03hvNTzSOJk1Fuh4CqGKlGTUCawT
jOSaJxy4SFD/l1rrAXstCeM=
-----END CERTIFICATE-----
