Certificate:
    Data:
        Version: 3 (0x2)
        Serial Number: 4 (0x4)
    Signature Algorithm: sha1WithRSAEncryption
        Issuer: O=Grid, OU=GlobusTest, OU=simpleCA-david.ccgc.mastercpd.upv.es, CN=Globus Simple CA
        Validity
            Not Before: Dec 26 23:20:15 2023 GMT
            Not After : Dec 25 23:20:15 2024 GMT
        Subject: O=Grid, OU=GlobusTest, OU=simpleCA-david.ccgc.mastercpd.upv.es, CN=David Valdaliso Lopez
        Subject Public Key Info:
            Public Key Algorithm: rsaEncryption
                Public-Key: (1024 bit)
                Modulus:
                    00:b4:0f:61:ea:e4:89:8e:cb:91:22:45:c1:c2:46:
                    47:f9:c8:f4:5f:e1:9d:0a:d5:e9:46:4d:ee:90:0f:
                    6d:4d:4e:46:a2:f9:9b:fc:87:3c:8d:12:6f:ce:e0:
                    87:42:7a:99:d2:c3:84:4b:77:1e:b6:9b:e7:cd:37:
                    16:ea:63:95:b1:cc:49:62:b7:0d:55:5d:da:d9:bd:
                    80:de:71:c5:5f:3e:a3:40:7c:8a:35:ae:de:c6:59:
                    c3:fb:24:43:69:3a:1d:ef:98:f0:d4:ca:7c:fd:0e:
                    8f:da:e3:d9:f6:39:98:6f:cd:0a:0a:70:85:7c:96:
                    f6:ef:3d:17:a9:82:a6:ae:21
                Exponent: 65537 (0x10001)
        X509v3 extensions:
            Netscape Cert Type: 
                SSL Client, SSL Server, S/MIME, Object Signing
    Signature Algorithm: sha1WithRSAEncryption
         ad:34:3a:ff:8f:f9:44:51:69:4d:e8:aa:69:dc:4c:09:01:71:
         94:ec:02:8a:12:54:5d:56:95:5b:39:5a:32:5d:d3:4c:87:7b:
         8a:99:6f:a4:9c:a7:9e:b1:e5:95:26:1e:18:c2:93:36:2e:59:
         c1:b1:38:ab:01:6a:42:9b:e5:d7:3a:87:91:40:39:d6:76:a9:
         ce:c3:10:af:5e:f8:a6:e7:f6:db:17:ce:7c:8d:b9:99:4e:98:
         94:b3:91:1c:2d:35:95:ec:d1:fc:57:dc:55:72:94:a7:ae:63:
         dc:60:a0:fc:2e:28:f2:e0:92:cd:44:00:78:5a:9f:0d:06:64:
         82:99
-----BEGIN CERTIFICATE-----
MIICbDCCAdWgAwIBAgIBBDANBgkqhkiG9w0BAQUFADBuMQ0wCwYDVQQKEwRHcmlk
MRMwEQYDVQQLEwpHbG9idXNUZXN0MS0wKwYDVQQLEyRzaW1wbGVDQS1kYXZpZC5j
Y2djLm1hc3RlcmNwZC51cHYuZXMxGTAXBgNVBAMTEEdsb2J1cyBTaW1wbGUgQ0Ew
HhcNMjMxMjI2MjMyMDE1WhcNMjQxMjI1MjMyMDE1WjBzMQ0wCwYDVQQKEwRHcmlk
MRMwEQYDVQQLEwpHbG9idXNUZXN0MS0wKwYDVQQLEyRzaW1wbGVDQS1kYXZpZC5j
Y2djLm1hc3RlcmNwZC51cHYuZXMxHjAcBgNVBAMTFURhdmlkIFZhbGRhbGlzbyBM
b3BlejCBnzANBgkqhkiG9w0BAQEFAAOBjQAwgYkCgYEAtA9h6uSJjsuRIkXBwkZH
+cj0X+GdCtXpRk3ukA9tTU5Govmb/Ic8jRJvzuCHQnqZ0sOES3cetpvnzTcW6mOV
scxJYrcNVV3a2b2A3nHFXz6jQHyKNa7exlnD+yRDaTod75jw1Mp8/Q6P2uPZ9jmY
b80KCnCFfJb27z0XqYKmriECAwEAAaMVMBMwEQYJYIZIAYb4QgEBBAQDAgTwMA0G
CSqGSIb3DQEBBQUAA4GBAK00Ov+P+URRaU3oqmncTAkBcZTsAooSVF1WlVs5WjJd
00yHe4qZb6Scp56x5ZUmHhjCkzYuWcGxOKsBakKb5dc6h5FAOdZ2qc7DEK9e+Kbn
9tsXznyNuZlOmJSzkRwtNZXs0fxX3FVylKeuY9xgoPwuKPLgks1EAHhanw0GZIKZ
-----END CERTIFICATE-----
