Certificate:
    Data:
        Version: 3 (0x2)
        Serial Number: 3 (0x3)
    Signature Algorithm: sha1WithRSAEncryption
        Issuer: O=Grid, OU=GlobusTest, OU=simpleCA-david.ccgc.mastercpd.upv.es, CN=Globus Simple CA
        Validity
            Not Before: Dec 26 23:19:46 2023 GMT
            Not After : Dec 25 23:19:46 2024 GMT
        Subject: O=Grid, OU=GlobusTest, OU=simpleCA-david.ccgc.mastercpd.upv.es, OU=local, CN=David Valdaliso
        Subject Public Key Info:
            Public Key Algorithm: rsaEncryption
                Public-Key: (1024 bit)
                Modulus:
                    00:bf:13:e0:47:77:86:91:c0:97:f2:9f:75:a1:fc:
                    16:57:f0:67:1c:ab:db:e0:97:e7:e8:f4:fd:a0:d7:
                    69:8f:78:4f:2d:ca:e4:88:c7:d5:80:1e:20:0b:51:
                    04:87:ff:be:7c:d2:1c:83:5d:cd:4f:de:98:1c:8d:
                    91:2f:44:05:04:ab:7d:60:45:b3:02:f3:de:2b:8a:
                    03:e6:c4:97:3a:b8:fc:b7:e2:2e:2d:3c:d7:24:29:
                    9f:65:57:c2:6a:90:e9:5f:f7:2d:37:2d:e4:c6:9c:
                    dc:3b:39:4e:0b:ff:ac:bc:bd:81:2b:08:e9:75:73:
                    76:e2:3a:04:90:33:e1:51:a3
                Exponent: 65537 (0x10001)
        X509v3 extensions:
            Netscape Cert Type: 
                SSL Client, SSL Server, S/MIME, Object Signing
    Signature Algorithm: sha1WithRSAEncryption
         62:ff:c1:26:7f:92:c2:f1:8d:a9:a3:fd:28:55:e5:a1:91:24:
         c0:ba:31:c2:d5:d5:cf:fa:df:3a:d9:06:5e:a7:87:e1:8b:6c:
         53:7d:76:c5:9e:07:e3:74:04:0b:b8:2c:69:23:62:46:aa:81:
         bc:52:29:ea:ea:42:fe:75:31:ac:65:5b:fb:f5:aa:23:10:77:
         59:bb:6f:c9:9a:1b:a4:f5:ee:35:37:12:98:30:c3:32:fe:08:
         20:a4:fb:61:10:63:08:c1:46:73:b9:71:86:89:3d:e9:04:d0:
         da:46:bd:37:8b:92:f9:42:11:26:ab:78:8c:ef:bd:06:16:0a:
         29:fd
-----BEGIN CERTIFICATE-----
MIICdjCCAd+gAwIBAgIBAzANBgkqhkiG9w0BAQUFADBuMQ0wCwYDVQQKEwRHcmlk
MRMwEQYDVQQLEwpHbG9idXNUZXN0MS0wKwYDVQQLEyRzaW1wbGVDQS1kYXZpZC5j
Y2djLm1hc3RlcmNwZC51cHYuZXMxGTAXBgNVBAMTEEdsb2J1cyBTaW1wbGUgQ0Ew
HhcNMjMxMjI2MjMxOTQ2WhcNMjQxMjI1MjMxOTQ2WjB9MQ0wCwYDVQQKEwRHcmlk
MRMwEQYDVQQLEwpHbG9idXNUZXN0MS0wKwYDVQQLEyRzaW1wbGVDQS1kYXZpZC5j
Y2djLm1hc3RlcmNwZC51cHYuZXMxDjAMBgNVBAsTBWxvY2FsMRgwFgYDVQQDEw9E
YXZpZCBWYWxkYWxpc28wgZ8wDQYJKoZIhvcNAQEBBQADgY0AMIGJAoGBAL8T4Ed3
hpHAl/KfdaH8FlfwZxyr2+CX5+j0/aDXaY94Ty3K5IjH1YAeIAtRBIf/vnzSHINd
zU/emByNkS9EBQSrfWBFswLz3iuKA+bElzq4/LfiLi081yQpn2VXwmqQ6V/3LTct
5Mac3Ds5Tgv/rLy9gSsI6XVzduI6BJAz4VGjAgMBAAGjFTATMBEGCWCGSAGG+EIB
AQQEAwIE8DANBgkqhkiG9w0BAQUFAAOBgQBi/8Emf5LC8Y2po/0oVeWhkSTAujHC
1dXP+t862QZep4fhi2xTfXbFngfjdAQLuCxpI2JGqoG8Uinq6kL+dTGsZVv79aoj
EHdZu2/Jmhuk9e41NxKYMMMy/gggpPthEGMIwUZzuXGGiT3pBNDaRr03i5L5QhEm
q3iM770GFgop/Q==
-----END CERTIFICATE-----
